target datalayout = "e-m:e-p270:32:32-p271:32:32-p272:64:64-i64:64-i128:128-f80:128-n8:16:32:64-S128"
target triple = "x86_64-pc-linux-gnu"

%struct.jpeg_compress_struct = type { ptr, ptr, ptr, ptr, i32, i32, ptr, i32, i32, i32, i32, double, i32, i32, i32, ptr, [4 x ptr], [4 x ptr], [4 x ptr], [16 x i8], [16 x i8], [16 x i8], i32, ptr, i32, i32, i32, i32, i32, i32, i32, i32, i32, i8, i8, i8, i16, i16, i32, i32, i32, i32, i32, i32, i32, [4 x ptr], i32, i32, i32, [10 x i32], i32, i32, i32, i32, ptr, ptr, ptr, ptr, ptr, ptr, ptr, ptr, ptr, ptr, i32 }
%struct.jpeg_error_mgr = type { ptr, ptr, ptr, ptr, ptr, i32, %union.anon, i32, i64, ptr, i32, ptr, i32, i32 }
%union.anon = type { [8 x i32], [48 x i8] }
%struct.jpeg_memory_mgr = type { ptr, ptr, ptr, ptr, ptr, ptr, ptr, ptr, ptr, ptr, ptr, i64, i64 }
%struct.my_downsampler = type { %struct.jpeg_downsampler, [10 x ptr] }
%struct.jpeg_downsampler = type { ptr, ptr, ptr, ptr, i32 }
%struct.jpeg_component_info = type { i32, i32, i32, i32, i32, i32, i32, i32, i32, i32, i32, i32, i32, i32, i32, i32, i32, i32, i32, ptr, ptr }

; Function Attrs: nounwind uwtable
define void @jinit_downsampler(ptr noundef %0) #0 {
  %2 = alloca ptr, align 8
  %3 = alloca ptr, align 8
  %4 = alloca i32, align 4
  %5 = alloca ptr, align 8
  %6 = alloca i32, align 4
  store ptr %0, ptr %2, align 8
  store i32 1, ptr %6, align 4
  %7 = load ptr, ptr %2, align 8
  %8 = getelementptr inbounds %struct.jpeg_compress_struct, ptr %7, i32 0, i32 12
  %9 = load i32, ptr %8, align 8
  %10 = icmp ne i32 %9, 8
  br i1 %10, label %11, label %30

11:                                               ; preds = %1
  %12 = load ptr, ptr %2, align 8
  %13 = getelementptr inbounds %struct.jpeg_compress_struct, ptr %12, i32 0, i32 0
  %14 = load ptr, ptr %13, align 8
  %15 = getelementptr inbounds %struct.jpeg_error_mgr, ptr %14, i32 0, i32 5
  store i32 15, ptr %15, align 8
  %16 = load ptr, ptr %2, align 8
  %17 = getelementptr inbounds %struct.jpeg_compress_struct, ptr %16, i32 0, i32 12
  %18 = load i32, ptr %17, align 8
  %19 = load ptr, ptr %2, align 8
  %20 = getelementptr inbounds %struct.jpeg_compress_struct, ptr %19, i32 0, i32 0
  %21 = load ptr, ptr %20, align 8
  %22 = getelementptr inbounds %struct.jpeg_error_mgr, ptr %21, i32 0, i32 6
  %23 = getelementptr inbounds [8 x i32], ptr %22, i64 0, i64 0
  store i32 %18, ptr %23, align 4
  %24 = load ptr, ptr %2, align 8
  %25 = getelementptr inbounds %struct.jpeg_compress_struct, ptr %24, i32 0, i32 0
  %26 = load ptr, ptr %25, align 8
  %27 = getelementptr inbounds %struct.jpeg_error_mgr, ptr %26, i32 0, i32 0
  %28 = load ptr, ptr %27, align 8
  %29 = load ptr, ptr %2, align 8
  call void %28(ptr noundef %29)
  br label %30

30:                                               ; preds = %11, %1
  %31 = load ptr, ptr %2, align 8
  %32 = getelementptr inbounds %struct.jpeg_compress_struct, ptr %31, i32 0, i32 1
  %33 = load ptr, ptr %32, align 8
  %34 = getelementptr inbounds %struct.jpeg_memory_mgr, ptr %33, i32 0, i32 0
  %35 = load ptr, ptr %34, align 8
  %36 = load ptr, ptr %2, align 8
  %37 = call ptr %35(ptr noundef %36, i32 noundef 1, i64 noundef 120)
  store ptr %37, ptr %3, align 8
  %38 = load ptr, ptr %3, align 8
  %39 = load ptr, ptr %2, align 8
  %40 = getelementptr inbounds %struct.jpeg_compress_struct, ptr %39, i32 0, i32 60
  store ptr %38, ptr %40, align 8
  %41 = load ptr, ptr %3, align 8
  %42 = getelementptr inbounds %struct.my_downsampler, ptr %41, i32 0, i32 0
  %43 = getelementptr inbounds %struct.jpeg_downsampler, ptr %42, i32 0, i32 0
  store ptr @start_pass_downsample, ptr %43, align 8
  %44 = load ptr, ptr %3, align 8
  %45 = getelementptr inbounds %struct.my_downsampler, ptr %44, i32 0, i32 0
  %46 = getelementptr inbounds %struct.jpeg_downsampler, ptr %45, i32 0, i32 1
  store ptr @sep_downsample, ptr %46, align 8
  %47 = load ptr, ptr %3, align 8
  %48 = getelementptr inbounds %struct.my_downsampler, ptr %47, i32 0, i32 0
  %49 = getelementptr inbounds %struct.jpeg_downsampler, ptr %48, i32 0, i32 4
  store i32 0, ptr %49, align 8
  %50 = load ptr, ptr %2, align 8
  %51 = getelementptr inbounds %struct.jpeg_compress_struct, ptr %50, i32 0, i32 27
  %52 = load i32, ptr %51, align 4
  %53 = icmp ne i32 %52, 0
  br i1 %53, label %54, label %65

54:                                               ; preds = %30
  %55 = load ptr, ptr %2, align 8
  %56 = getelementptr inbounds %struct.jpeg_compress_struct, ptr %55, i32 0, i32 0
  %57 = load ptr, ptr %56, align 8
  %58 = getelementptr inbounds %struct.jpeg_error_mgr, ptr %57, i32 0, i32 5
  store i32 25, ptr %58, align 8
  %59 = load ptr, ptr %2, align 8
  %60 = getelementptr inbounds %struct.jpeg_compress_struct, ptr %59, i32 0, i32 0
  %61 = load ptr, ptr %60, align 8
  %62 = getelementptr inbounds %struct.jpeg_error_mgr, ptr %61, i32 0, i32 0
  %63 = load ptr, ptr %62, align 8
  %64 = load ptr, ptr %2, align 8
  call void %63(ptr noundef %64)
  br label %65

65:                                               ; preds = %54, %30
  store i32 0, ptr %4, align 4
  %66 = load ptr, ptr %2, align 8
  %67 = getelementptr inbounds %struct.jpeg_compress_struct, ptr %66, i32 0, i32 15
  %68 = load ptr, ptr %67, align 8
  store ptr %68, ptr %5, align 8
  br label %69

69:                                               ; preds = %233, %65
  %70 = load i32, ptr %4, align 4
  %71 = load ptr, ptr %2, align 8
  %72 = getelementptr inbounds %struct.jpeg_compress_struct, ptr %71, i32 0, i32 13
  %73 = load i32, ptr %72, align 4
  %74 = icmp slt i32 %70, %73
  br i1 %74, label %75, label %238

75:                                               ; preds = %69
  %76 = load ptr, ptr %5, align 8
  %77 = getelementptr inbounds %struct.jpeg_component_info, ptr %76, i32 0, i32 2
  %78 = load i32, ptr %77, align 8
  %79 = load ptr, ptr %2, align 8
  %80 = getelementptr inbounds %struct.jpeg_compress_struct, ptr %79, i32 0, i32 41
  %81 = load i32, ptr %80, align 8
  %82 = icmp eq i32 %78, %81
  br i1 %82, label %83, label %112

83:                                               ; preds = %75
  %84 = load ptr, ptr %5, align 8
  %85 = getelementptr inbounds %struct.jpeg_component_info, ptr %84, i32 0, i32 3
  %86 = load i32, ptr %85, align 4
  %87 = load ptr, ptr %2, align 8
  %88 = getelementptr inbounds %struct.jpeg_compress_struct, ptr %87, i32 0, i32 42
  %89 = load i32, ptr %88, align 4
  %90 = icmp eq i32 %86, %89
  br i1 %90, label %91, label %112

91:                                               ; preds = %83
  %92 = load ptr, ptr %2, align 8
  %93 = getelementptr inbounds %struct.jpeg_compress_struct, ptr %92, i32 0, i32 28
  %94 = load i32, ptr %93, align 8
  %95 = icmp ne i32 %94, 0
  br i1 %95, label %96, label %105

96:                                               ; preds = %91
  %97 = load ptr, ptr %3, align 8
  %98 = getelementptr inbounds %struct.my_downsampler, ptr %97, i32 0, i32 1
  %99 = load i32, ptr %4, align 4
  %100 = sext i32 %99 to i64
  %101 = getelementptr inbounds [10 x ptr], ptr %98, i64 0, i64 %100
  store ptr @fullsize_smooth_downsample, ptr %101, align 8
  %102 = load ptr, ptr %3, align 8
  %103 = getelementptr inbounds %struct.my_downsampler, ptr %102, i32 0, i32 0
  %104 = getelementptr inbounds %struct.jpeg_downsampler, ptr %103, i32 0, i32 4
  store i32 1, ptr %104, align 8
  br label %111

105:                                              ; preds = %91
  %106 = load ptr, ptr %3, align 8
  %107 = getelementptr inbounds %struct.my_downsampler, ptr %106, i32 0, i32 1
  %108 = load i32, ptr %4, align 4
  %109 = sext i32 %108 to i64
  %110 = getelementptr inbounds [10 x ptr], ptr %107, i64 0, i64 %109
  store ptr @fullsize_downsample, ptr %110, align 8
  br label %111

111:                                              ; preds = %105, %96
  br label %232

112:                                              ; preds = %83, %75
  %113 = load ptr, ptr %5, align 8
  %114 = getelementptr inbounds %struct.jpeg_component_info, ptr %113, i32 0, i32 2
  %115 = load i32, ptr %114, align 8
  %116 = mul nsw i32 %115, 2
  %117 = load ptr, ptr %2, align 8
  %118 = getelementptr inbounds %struct.jpeg_compress_struct, ptr %117, i32 0, i32 41
  %119 = load i32, ptr %118, align 8
  %120 = icmp eq i32 %116, %119
  br i1 %120, label %121, label %145

121:                                              ; preds = %112
  %122 = load ptr, ptr %5, align 8
  %123 = getelementptr inbounds %struct.jpeg_component_info, ptr %122, i32 0, i32 3
  %124 = load i32, ptr %123, align 4
  %125 = load ptr, ptr %2, align 8
  %126 = getelementptr inbounds %struct.jpeg_compress_struct, ptr %125, i32 0, i32 42
  %127 = load i32, ptr %126, align 4
  %128 = icmp eq i32 %124, %127
  br i1 %128, label %129, label %145

129:                                              ; preds = %121
  store i32 0, ptr %6, align 4
  %130 = call i32 @jsimd_can_h2v1_downsample()
  %131 = icmp ne i32 %130, 0
  br i1 %131, label %132, label %138

132:                                              ; preds = %129
  %133 = load ptr, ptr %3, align 8
  %134 = getelementptr inbounds %struct.my_downsampler, ptr %133, i32 0, i32 1
  %135 = load i32, ptr %4, align 4
  %136 = sext i32 %135 to i64
  %137 = getelementptr inbounds [10 x ptr], ptr %134, i64 0, i64 %136
  store ptr @jsimd_h2v1_downsample, ptr %137, align 8
  br label %144

138:                                              ; preds = %129
  %139 = load ptr, ptr %3, align 8
  %140 = getelementptr inbounds %struct.my_downsampler, ptr %139, i32 0, i32 1
  %141 = load i32, ptr %4, align 4
  %142 = sext i32 %141 to i64
  %143 = getelementptr inbounds [10 x ptr], ptr %140, i64 0, i64 %142
  store ptr @h2v1_downsample, ptr %143, align 8
  br label %144

144:                                              ; preds = %138, %132
  br label %231

145:                                              ; preds = %121, %112
  %146 = load ptr, ptr %5, align 8
  %147 = getelementptr inbounds %struct.jpeg_component_info, ptr %146, i32 0, i32 2
  %148 = load i32, ptr %147, align 8
  %149 = mul nsw i32 %148, 2
  %150 = load ptr, ptr %2, align 8
  %151 = getelementptr inbounds %struct.jpeg_compress_struct, ptr %150, i32 0, i32 41
  %152 = load i32, ptr %151, align 8
  %153 = icmp eq i32 %149, %152
  br i1 %153, label %154, label %194

154:                                              ; preds = %145
  %155 = load ptr, ptr %5, align 8
  %156 = getelementptr inbounds %struct.jpeg_component_info, ptr %155, i32 0, i32 3
  %157 = load i32, ptr %156, align 4
  %158 = mul nsw i32 %157, 2
  %159 = load ptr, ptr %2, align 8
  %160 = getelementptr inbounds %struct.jpeg_compress_struct, ptr %159, i32 0, i32 42
  %161 = load i32, ptr %160, align 4
  %162 = icmp eq i32 %158, %161
  br i1 %162, label %163, label %194

163:                                              ; preds = %154
  %164 = load ptr, ptr %2, align 8
  %165 = getelementptr inbounds %struct.jpeg_compress_struct, ptr %164, i32 0, i32 28
  %166 = load i32, ptr %165, align 8
  %167 = icmp ne i32 %166, 0
  br i1 %167, label %168, label %177

168:                                              ; preds = %163
  %169 = load ptr, ptr %3, align 8
  %170 = getelementptr inbounds %struct.my_downsampler, ptr %169, i32 0, i32 1
  %171 = load i32, ptr %4, align 4
  %172 = sext i32 %171 to i64
  %173 = getelementptr inbounds [10 x ptr], ptr %170, i64 0, i64 %172
  store ptr @h2v2_smooth_downsample, ptr %173, align 8
  %174 = load ptr, ptr %3, align 8
  %175 = getelementptr inbounds %struct.my_downsampler, ptr %174, i32 0, i32 0
  %176 = getelementptr inbounds %struct.jpeg_downsampler, ptr %175, i32 0, i32 4
  store i32 1, ptr %176, align 8
  br label %193

177:                                              ; preds = %163
  %178 = call i32 @jsimd_can_h2v2_downsample()
  %179 = icmp ne i32 %178, 0
  br i1 %179, label %180, label %186

180:                                              ; preds = %177
  %181 = load ptr, ptr %3, align 8
  %182 = getelementptr inbounds %struct.my_downsampler, ptr %181, i32 0, i32 1
  %183 = load i32, ptr %4, align 4
  %184 = sext i32 %183 to i64
  %185 = getelementptr inbounds [10 x ptr], ptr %182, i64 0, i64 %184
  store ptr @jsimd_h2v2_downsample, ptr %185, align 8
  br label %192

186:                                              ; preds = %177
  %187 = load ptr, ptr %3, align 8
  %188 = getelementptr inbounds %struct.my_downsampler, ptr %187, i32 0, i32 1
  %189 = load i32, ptr %4, align 4
  %190 = sext i32 %189 to i64
  %191 = getelementptr inbounds [10 x ptr], ptr %188, i64 0, i64 %190
  store ptr @h2v2_downsample, ptr %191, align 8
  br label %192

192:                                              ; preds = %186, %180
  br label %193

193:                                              ; preds = %192, %168
  br label %230

194:                                              ; preds = %154, %145
  %195 = load ptr, ptr %2, align 8
  %196 = getelementptr inbounds %struct.jpeg_compress_struct, ptr %195, i32 0, i32 41
  %197 = load i32, ptr %196, align 8
  %198 = load ptr, ptr %5, align 8
  %199 = getelementptr inbounds %struct.jpeg_component_info, ptr %198, i32 0, i32 2
  %200 = load i32, ptr %199, align 8
  %201 = srem i32 %197, %200
  %202 = icmp eq i32 %201, 0
  br i1 %202, label %203, label %218

203:                                              ; preds = %194
  %204 = load ptr, ptr %2, align 8
  %205 = getelementptr inbounds %struct.jpeg_compress_struct, ptr %204, i32 0, i32 42
  %206 = load i32, ptr %205, align 4
  %207 = load ptr, ptr %5, align 8
  %208 = getelementptr inbounds %struct.jpeg_component_info, ptr %207, i32 0, i32 3
  %209 = load i32, ptr %208, align 4
  %210 = srem i32 %206, %209
  %211 = icmp eq i32 %210, 0
  br i1 %211, label %212, label %218

212:                                              ; preds = %203
  store i32 0, ptr %6, align 4
  %213 = load ptr, ptr %3, align 8
  %214 = getelementptr inbounds %struct.my_downsampler, ptr %213, i32 0, i32 1
  %215 = load i32, ptr %4, align 4
  %216 = sext i32 %215 to i64
  %217 = getelementptr inbounds [10 x ptr], ptr %214, i64 0, i64 %216
  store ptr @int_downsample, ptr %217, align 8
  br label %229

218:                                              ; preds = %203, %194
  %219 = load ptr, ptr %2, align 8
  %220 = getelementptr inbounds %struct.jpeg_compress_struct, ptr %219, i32 0, i32 0
  %221 = load ptr, ptr %220, align 8
  %222 = getelementptr inbounds %struct.jpeg_error_mgr, ptr %221, i32 0, i32 5
  store i32 38, ptr %222, align 8
  %223 = load ptr, ptr %2, align 8
  %224 = getelementptr inbounds %struct.jpeg_compress_struct, ptr %223, i32 0, i32 0
  %225 = load ptr, ptr %224, align 8
  %226 = getelementptr inbounds %struct.jpeg_error_mgr, ptr %225, i32 0, i32 0
  %227 = load ptr, ptr %226, align 8
  %228 = load ptr, ptr %2, align 8
  call void %227(ptr noundef %228)
  br label %229

229:                                              ; preds = %218, %212
  br label %230

230:                                              ; preds = %229, %193
  br label %231

231:                                              ; preds = %230, %144
  br label %232

232:                                              ; preds = %231, %111
  br label %233

233:                                              ; preds = %232
  %234 = load i32, ptr %4, align 4
  %235 = add nsw i32 %234, 1
  store i32 %235, ptr %4, align 4
  %236 = load ptr, ptr %5, align 8
  %237 = getelementptr inbounds %struct.jpeg_component_info, ptr %236, i32 1
  store ptr %237, ptr %5, align 8
  br label %69, !llvm.loop !4

238:                                              ; preds = %69
  %239 = load ptr, ptr %2, align 8
  %240 = getelementptr inbounds %struct.jpeg_compress_struct, ptr %239, i32 0, i32 28
  %241 = load i32, ptr %240, align 8
  %242 = icmp ne i32 %241, 0
  br i1 %242, label %243, label %257

243:                                              ; preds = %238
  %244 = load i32, ptr %6, align 4
  %245 = icmp ne i32 %244, 0
  br i1 %245, label %257, label %246

246:                                              ; preds = %243
  %247 = load ptr, ptr %2, align 8
  %248 = getelementptr inbounds %struct.jpeg_compress_struct, ptr %247, i32 0, i32 0
  %249 = load ptr, ptr %248, align 8
  %250 = getelementptr inbounds %struct.jpeg_error_mgr, ptr %249, i32 0, i32 5
  store i32 99, ptr %250, align 8
  %251 = load ptr, ptr %2, align 8
  %252 = getelementptr inbounds %struct.jpeg_compress_struct, ptr %251, i32 0, i32 0
  %253 = load ptr, ptr %252, align 8
  %254 = getelementptr inbounds %struct.jpeg_error_mgr, ptr %253, i32 0, i32 1
  %255 = load ptr, ptr %254, align 8
  %256 = load ptr, ptr %2, align 8
  call void %255(ptr noundef %256, i32 noundef 0)
  br label %257

257:                                              ; preds = %246, %243, %238
  ret void
}