; Function Attrs: nounwind uwtable
define void @jinit_downsampler(ptr noundef %0) local_unnamed_addr #0 {
  %2 = getelementptr inbounds i8, ptr %0, i64 72
  %3 = load i32, ptr %2, align 8
  %.not = icmp eq i32 %3, 8
  br i1 %.not, label %12, label %4

4:                                                ; preds = %1
  %5 = load ptr, ptr %0, align 8
  %6 = getelementptr inbounds i8, ptr %5, i64 40
  store i32 15, ptr %6, align 8
  %7 = load i32, ptr %2, align 8
  %8 = load ptr, ptr %0, align 8
  %9 = getelementptr inbounds i8, ptr %8, i64 44
  store i32 %7, ptr %9, align 4
  %10 = load ptr, ptr %0, align 8
  %11 = load ptr, ptr %10, align 8
  tail call void %11(ptr noundef nonnull %0) #5
  br label %12

12:                                               ; preds = %4, %1
  %13 = getelementptr inbounds i8, ptr %0, i64 8
  %14 = load ptr, ptr %13, align 8
  %15 = load ptr, ptr %14, align 8
  %16 = tail call ptr %15(ptr noundef nonnull %0, i32 noundef 1, i64 noundef 120) #5
  %17 = getelementptr inbounds i8, ptr %0, i64 480
  store ptr %16, ptr %17, align 8
  store ptr @start_pass_downsample, ptr %16, align 8
  %18 = getelementptr inbounds i8, ptr %16, i64 8
  store ptr @sep_downsample, ptr %18, align 8
  %19 = getelementptr inbounds i8, ptr %16, i64 32
  store i32 0, ptr %19, align 8
  %20 = getelementptr inbounds i8, ptr %0, i64 268
  %21 = load i32, ptr %20, align 4
  %.not68 = icmp eq i32 %21, 0
  br i1 %.not68, label %27, label %22

22:                                               ; preds = %12
  %23 = load ptr, ptr %0, align 8
  %24 = getelementptr inbounds i8, ptr %23, i64 40
  store i32 25, ptr %24, align 8
  %25 = load ptr, ptr %0, align 8
  %26 = load ptr, ptr %25, align 8
  tail call void %26(ptr noundef nonnull %0) #5
  br label %27

27:                                               ; preds = %22, %12
  %28 = getelementptr inbounds i8, ptr %0, i64 76
  %29 = load i32, ptr %28, align 4
  %30 = icmp sgt i32 %29, 0
  br i1 %30, label %.lr.ph, label %._crit_edge.thread

.lr.ph:                                           ; preds = %27
  %31 = getelementptr inbounds i8, ptr %0, i64 88
  %32 = load ptr, ptr %31, align 8
  %33 = getelementptr inbounds i8, ptr %0, i64 312
  %34 = getelementptr inbounds i8, ptr %0, i64 316
  %35 = getelementptr inbounds i8, ptr %16, i64 40
  %36 = getelementptr inbounds i8, ptr %0, i64 272
  br label %37

37:                                               ; preds = %.lr.ph, %93
  %indvars.iv = phi i64 [ 0, %.lr.ph ], [ %indvars.iv.next, %93 ]
  %.076 = phi i32 [ 1, %.lr.ph ], [ %.1, %93 ]
  %.06675 = phi ptr [ %32, %.lr.ph ], [ %94, %93 ]
  %38 = getelementptr inbounds i8, ptr %.06675, i64 8
  %39 = load i32, ptr %38, align 8
  %40 = load i32, ptr %33, align 8
  %41 = icmp eq i32 %39, %40
  br i1 %41, label %42, label %52

42:                                               ; preds = %37
  %43 = getelementptr inbounds i8, ptr %.06675, i64 12
  %44 = load i32, ptr %43, align 4
  %45 = load i32, ptr %34, align 4
  %46 = icmp eq i32 %44, %45
  br i1 %46, label %47, label %52

47:                                               ; preds = %42
  %48 = load i32, ptr %36, align 8
  %.not72 = icmp eq i32 %48, 0
  %49 = getelementptr inbounds [10 x ptr], ptr %35, i64 0, i64 %indvars.iv
  br i1 %.not72, label %51, label %50

50:                                               ; preds = %47
  store ptr @fullsize_smooth_downsample, ptr %49, align 8
  store i32 1, ptr %19, align 8
  br label %93

51:                                               ; preds = %47
  store ptr @fullsize_downsample, ptr %49, align 8
  br label %93

52:                                               ; preds = %42, %37
  %53 = shl nsw i32 %39, 1
  %54 = icmp eq i32 %53, %40
  br i1 %54, label %55, label %77

55:                                               ; preds = %52
  %56 = getelementptr inbounds i8, ptr %.06675, i64 12
  %57 = load i32, ptr %56, align 4
  %58 = load i32, ptr %34, align 4
  %59 = icmp eq i32 %57, %58
  br i1 %59, label %60, label %65

60:                                               ; preds = %55
  %61 = tail call i32 @jsimd_can_h2v1_downsample() #5
  %.not71 = icmp eq i32 %61, 0
  %62 = getelementptr inbounds [10 x ptr], ptr %35, i64 0, i64 %indvars.iv
  br i1 %.not71, label %64, label %63

63:                                               ; preds = %60
  store ptr @jsimd_h2v1_downsample, ptr %62, align 8
  br label %93

64:                                               ; preds = %60
  store ptr @h2v1_downsample, ptr %62, align 8
  br label %93

65:                                               ; preds = %55
  %66 = shl nsw i32 %57, 1
  %67 = icmp eq i32 %66, %58
  br i1 %67, label %68, label %77

68:                                               ; preds = %65
  %69 = load i32, ptr %36, align 8
  %.not69 = icmp eq i32 %69, 0
  br i1 %.not69, label %72, label %70

70:                                               ; preds = %68
  %71 = getelementptr inbounds [10 x ptr], ptr %35, i64 0, i64 %indvars.iv
  store ptr @h2v2_smooth_downsample, ptr %71, align 8
  store i32 1, ptr %19, align 8
  br label %93

72:                                               ; preds = %68
  %73 = tail call i32 @jsimd_can_h2v2_downsample() #5
  %.not70 = icmp eq i32 %73, 0
  %74 = getelementptr inbounds [10 x ptr], ptr %35, i64 0, i64 %indvars.iv
  br i1 %.not70, label %76, label %75

75:                                               ; preds = %72
  store ptr @jsimd_h2v2_downsample, ptr %74, align 8
  br label %93

76:                                               ; preds = %72
  store ptr @h2v2_downsample, ptr %74, align 8
  br label %93

77:                                               ; preds = %52, %65
  %78 = srem i32 %40, %39
  %79 = icmp eq i32 %78, 0
  br i1 %79, label %80, label %88

80:                                               ; preds = %77
  %81 = load i32, ptr %34, align 4
  %82 = getelementptr inbounds i8, ptr %.06675, i64 12
  %83 = load i32, ptr %82, align 4
  %84 = srem i32 %81, %83
  %85 = icmp eq i32 %84, 0
  br i1 %85, label %86, label %88

86:                                               ; preds = %80
  %87 = getelementptr inbounds [10 x ptr], ptr %35, i64 0, i64 %indvars.iv
  store ptr @int_downsample, ptr %87, align 8
  br label %93

88:                                               ; preds = %80, %77
  %89 = load ptr, ptr %0, align 8
  %90 = getelementptr inbounds i8, ptr %89, i64 40
  store i32 38, ptr %90, align 8
  %91 = load ptr, ptr %0, align 8
  %92 = load ptr, ptr %91, align 8
  tail call void %92(ptr noundef nonnull %0) #5
  br label %93

93:                                               ; preds = %51, %50, %75, %76, %70, %88, %86, %63, %64
  %.1 = phi i32 [ %.076, %50 ], [ %.076, %51 ], [ 0, %63 ], [ 0, %64 ], [ %.076, %70 ], [ %.076, %75 ], [ %.076, %76 ], [ 0, %86 ], [ %.076, %88 ]
  %indvars.iv.next = add nuw nsw i64 %indvars.iv, 1
  %94 = getelementptr inbounds i8, ptr %.06675, i64 96
  %95 = load i32, ptr %28, align 4
  %96 = sext i32 %95 to i64
  %97 = icmp slt i64 %indvars.iv.next, %96
  br i1 %97, label %37, label %._crit_edge, !llvm.loop !4

._crit_edge:                                      ; preds = %93
  %98 = icmp ne i32 %.1, 0
  %99 = getelementptr inbounds i8, ptr %0, i64 272
  %100 = load i32, ptr %99, align 8
  %101 = icmp eq i32 %100, 0
  %or.cond = select i1 %101, i1 true, i1 %98
  br i1 %or.cond, label %._crit_edge.thread, label %102

102:                                              ; preds = %._crit_edge
  %103 = load ptr, ptr %0, align 8
  %104 = getelementptr inbounds i8, ptr %103, i64 40
  store i32 99, ptr %104, align 8
  %105 = load ptr, ptr %0, align 8
  %106 = getelementptr inbounds i8, ptr %105, i64 8
  %107 = load ptr, ptr %106, align 8
  tail call void %107(ptr noundef nonnull %0, i32 noundef 0) #5
  br label %._crit_edge.thread

._crit_edge.thread:                               ; preds = %27, %102, %._crit_edge
  ret void
}